target datalayout = "e-m:e-p270:32:32-p271:32:32-p272:64:64-i64:64-i128:128-f80:128-n8:16:32:64-S128"
target triple = "x86_64-pc-linux-gnu"

%struct.aiString = type { i32, [1024 x i8] }

@.str.92 = private unnamed_addr constant [6 x i8] c"&amp;\00", align 1
@.str.93 = private unnamed_addr constant [7 x i8] c"&quot;\00", align 1
@.str.94 = private unnamed_addr constant [7 x i8] c"&apos;\00", align 1
@.str.95 = private unnamed_addr constant [5 x i8] c"&lt;\00", align 1
@.str.96 = private unnamed_addr constant [5 x i8] c"&gt;\00", align 1

; Function Attrs: mustprogress nounwind uwtable
define linkonce_odr hidden void @_ZN8aiString6AppendEPKc(ptr noundef nonnull align 4 dereferenceable(1028) %0, ptr noundef %1) #2 comdat align 2 {
  %3 = alloca ptr, align 8
  %4 = alloca ptr, align 8
  %5 = alloca i32, align 4
  %6 = alloca i32, align 4
  store ptr %0, ptr %3, align 8
  store ptr %1, ptr %4, align 8
  %7 = load ptr, ptr %3, align 8
  call void @llvm.lifetime.start.p0(i64 4, ptr %5) #14
  %8 = load ptr, ptr %4, align 8
  %9 = call i64 @strlen(ptr noundef %8) #17
  %10 = trunc i64 %9 to i32
  store i32 %10, ptr %5, align 4
  %11 = load i32, ptr %5, align 4
  %12 = icmp ne i32 %11, 0
  br i1 %12, label %14, label %13

13:                                               ; preds = %2
  store i32 1, ptr %6, align 4
  br label %36

14:                                               ; preds = %2
  %15 = getelementptr inbounds nuw %struct.aiString, ptr %7, i32 0, i32 0
  %16 = load i32, ptr %15, align 4
  %17 = load i32, ptr %5, align 4
  %18 = add i32 %16, %17
  %19 = zext i32 %18 to i64
  %20 = icmp uge i64 %19, 1024
  br i1 %20, label %21, label %22

21:                                               ; preds = %14
  store i32 1, ptr %6, align 4
  br label %36

22:                                               ; preds = %14
  %23 = getelementptr inbounds nuw %struct.aiString, ptr %7, i32 0, i32 1
  %24 = getelementptr inbounds nuw %struct.aiString, ptr %7, i32 0, i32 0
  %25 = load i32, ptr %24, align 4
  %26 = zext i32 %25 to i64
  %27 = getelementptr inbounds nuw [1024 x i8], ptr %23, i64 0, i64 %26
  %28 = load ptr, ptr %4, align 8
  %29 = load i32, ptr %5, align 4
  %30 = add i32 %29, 1
  %31 = zext i32 %30 to i64
  call void @llvm.memcpy.p0.p0.i64(ptr align 1 %27, ptr align 1 %28, i64 %31, i1 false)
  %32 = load i32, ptr %5, align 4
  %33 = getelementptr inbounds nuw %struct.aiString, ptr %7, i32 0, i32 0
  %34 = load i32, ptr %33, align 4
  %35 = add i32 %34, %32
  store i32 %35, ptr %33, align 4
  store i32 0, ptr %6, align 4
  br label %36

36:                                               ; preds = %22, %21, %13
  call void @llvm.lifetime.end.p0(i64 4, ptr %5) #14
  %37 = load i32, ptr %6, align 4
  switch i32 %37, label %39 [
    i32 0, label %38
    i32 1, label %38
  ]

38:                                               ; preds = %36, %36
  ret void

39:                                               ; preds = %36
  unreachable
}

; Function Attrs: mustprogress uwtable
define internal void @_ZN6Assimp16AssxmlFileWriterL11ConvertNameER8aiStringRKS1_(ptr noundef nonnull align 4 dereferenceable(1028) %0, ptr noundef nonnull align 4 dereferenceable(1028) %1) #0 {
  %3 = alloca ptr, align 8
  %4 = alloca ptr, align 8
  %5 = alloca i32, align 4
  store ptr %0, ptr %3, align 8
  store ptr %1, ptr %4, align 8
  %6 = load ptr, ptr %3, align 8
  %7 = getelementptr inbounds nuw %struct.aiString, ptr %6, i32 0, i32 0
  store i32 0, ptr %7, align 4
  call void @llvm.lifetime.start.p0(i64 4, ptr %5) #14
  store i32 0, ptr %5, align 4
  br label %8

8:                                                ; preds = %49, %2
  %9 = load i32, ptr %5, align 4
  %10 = load ptr, ptr %4, align 8
  %11 = getelementptr inbounds nuw %struct.aiString, ptr %10, i32 0, i32 0
  %12 = load i32, ptr %11, align 4
  %13 = icmp ult i32 %9, %12
  br i1 %13, label %15, label %14

14:                                               ; preds = %8
  call void @llvm.lifetime.end.p0(i64 4, ptr %5) #14
  br label %52

15:                                               ; preds = %8
  %16 = load ptr, ptr %4, align 8
  %17 = getelementptr inbounds nuw %struct.aiString, ptr %16, i32 0, i32 1
  %18 = load i32, ptr %5, align 4
  %19 = zext i32 %18 to i64
  %20 = getelementptr inbounds nuw [1024 x i8], ptr %17, i64 0, i64 %19
  %21 = load i8, ptr %20, align 1
  %22 = sext i8 %21 to i32
  switch i32 %22, label %33 [
    i32 60, label %23
    i32 62, label %25
    i32 38, label %27
    i32 34, label %29
    i32 39, label %31
  ]

23:                                               ; preds = %15
  %24 = load ptr, ptr %3, align 8
  call void @_ZN8aiString6AppendEPKc(ptr noundef nonnull align 4 dereferenceable(1028) %24, ptr noundef @.str.95)
  br label %48

25:                                               ; preds = %15
  %26 = load ptr, ptr %3, align 8
  call void @_ZN8aiString6AppendEPKc(ptr noundef nonnull align 4 dereferenceable(1028) %26, ptr noundef @.str.96)
  br label %48

27:                                               ; preds = %15
  %28 = load ptr, ptr %3, align 8
  call void @_ZN8aiString6AppendEPKc(ptr noundef nonnull align 4 dereferenceable(1028) %28, ptr noundef @.str.92)
  br label %48

29:                                               ; preds = %15
  %30 = load ptr, ptr %3, align 8
  call void @_ZN8aiString6AppendEPKc(ptr noundef nonnull align 4 dereferenceable(1028) %30, ptr noundef @.str.93)
  br label %48

31:                                               ; preds = %15
  %32 = load ptr, ptr %3, align 8
  call void @_ZN8aiString6AppendEPKc(ptr noundef nonnull align 4 dereferenceable(1028) %32, ptr noundef @.str.94)
  br label %48

33:                                               ; preds = %15
  %34 = load ptr, ptr %4, align 8
  %35 = getelementptr inbounds nuw %struct.aiString, ptr %34, i32 0, i32 1
  %36 = load i32, ptr %5, align 4
  %37 = zext i32 %36 to i64
  %38 = getelementptr inbounds nuw [1024 x i8], ptr %35, i64 0, i64 %37
  %39 = load i8, ptr %38, align 1
  %40 = load ptr, ptr %3, align 8
  %41 = getelementptr inbounds nuw %struct.aiString, ptr %40, i32 0, i32 1
  %42 = load ptr, ptr %3, align 8
  %43 = getelementptr inbounds nuw %struct.aiString, ptr %42, i32 0, i32 0
  %44 = load i32, ptr %43, align 4
  %45 = add i32 %44, 1
  store i32 %45, ptr %43, align 4
  %46 = zext i32 %44 to i64
  %47 = getelementptr inbounds nuw [1024 x i8], ptr %41, i64 0, i64 %46
  store i8 %39, ptr %47, align 1
  br label %48

48:                                               ; preds = %33, %31, %29, %27, %25, %23
  br label %49

49:                                               ; preds = %48
  %50 = load i32, ptr %5, align 4
  %51 = add i32 %50, 1
  store i32 %51, ptr %5, align 4
  br label %8, !llvm.loop !39

52:                                               ; preds = %14
  %53 = load ptr, ptr %3, align 8
  %54 = getelementptr inbounds nuw %struct.aiString, ptr %53, i32 0, i32 1
  %55 = load ptr, ptr %3, align 8
  %56 = getelementptr inbounds nuw %struct.aiString, ptr %55, i32 0, i32 0
  %57 = load i32, ptr %56, align 4
  %58 = zext i32 %57 to i64
  %59 = getelementptr inbounds nuw [1024 x i8], ptr %54, i64 0, i64 %58
  store i8 0, ptr %59, align 1
  ret void
}