; Function Attrs: mustprogress nofree norecurse nosync nounwind memory(argmem: readwrite) uwtable
define internal fastcc void @_ZN6Assimp16AssxmlFileWriterL11ConvertNameER8aiStringRKS1_(ptr noundef nonnull writeonly align 4 captures(none) dereferenceable(1028) initializes((0, 4)) %0, ptr noundef nonnull readonly align 4 captures(none) dereferenceable(1028) %1) unnamed_addr #6 {
  store i32 0, ptr %0, align 4
  %3 = load i32, ptr %1, align 4
  %.not = icmp eq i32 %3, 0
  br i1 %.not, label %._crit_edge, label %.lr.ph

.lr.ph:                                           ; preds = %2
  %4 = getelementptr inbounds nuw i8, ptr %1, i64 4
  %5 = getelementptr inbounds nuw i8, ptr %0, i64 4
  br label %10

._crit_edge.loopexit:                             ; preds = %_ZN8aiString6AppendEPKc.exit
  %6 = zext i32 %52 to i64
  br label %._crit_edge

._crit_edge:                                      ; preds = %._crit_edge.loopexit, %2
  %7 = phi i64 [ %6, %._crit_edge.loopexit ], [ 0, %2 ]
  %8 = getelementptr inbounds nuw i8, ptr %0, i64 4
  %9 = getelementptr inbounds nuw [1024 x i8], ptr %8, i64 0, i64 %7
  store i8 0, ptr %9, align 1
  ret void

10:                                               ; preds = %.lr.ph, %_ZN8aiString6AppendEPKc.exit
  %11 = phi i32 [ 0, %.lr.ph ], [ %52, %_ZN8aiString6AppendEPKc.exit ]
  %12 = phi i32 [ 0, %.lr.ph ], [ %53, %_ZN8aiString6AppendEPKc.exit ]
  %13 = phi i32 [ 0, %.lr.ph ], [ %54, %_ZN8aiString6AppendEPKc.exit ]
  %14 = phi i32 [ 0, %.lr.ph ], [ %55, %_ZN8aiString6AppendEPKc.exit ]
  %15 = phi i32 [ 0, %.lr.ph ], [ %56, %_ZN8aiString6AppendEPKc.exit ]
  %indvars.iv = phi i64 [ 0, %.lr.ph ], [ %indvars.iv.next, %_ZN8aiString6AppendEPKc.exit ]
  %16 = getelementptr inbounds nuw [1024 x i8], ptr %4, i64 0, i64 %indvars.iv
  %17 = load i8, ptr %16, align 1
  switch i8 %17, label %48 [
    i8 60, label %18
    i8 62, label %24
    i8 38, label %30
    i8 34, label %36
    i8 39, label %42
  ]

18:                                               ; preds = %10
  %19 = add i32 %11, 4
  %20 = icmp ugt i32 %19, 1023
  br i1 %20, label %_ZN8aiString6AppendEPKc.exit, label %21

21:                                               ; preds = %18
  %22 = zext i32 %11 to i64
  %23 = getelementptr inbounds nuw [1024 x i8], ptr %5, i64 0, i64 %22
  tail call void @llvm.memcpy.p0.p0.i64(ptr noundef nonnull align 1 dereferenceable(5) %23, ptr noundef nonnull align 1 dereferenceable(5) @.str.95, i64 5, i1 false)
  store i32 %19, ptr %0, align 4
  br label %_ZN8aiString6AppendEPKc.exit

24:                                               ; preds = %10
  %25 = add i32 %12, 4
  %26 = icmp ugt i32 %25, 1023
  br i1 %26, label %_ZN8aiString6AppendEPKc.exit, label %27

27:                                               ; preds = %24
  %28 = zext i32 %12 to i64
  %29 = getelementptr inbounds nuw [1024 x i8], ptr %5, i64 0, i64 %28
  tail call void @llvm.memcpy.p0.p0.i64(ptr noundef nonnull align 1 dereferenceable(5) %29, ptr noundef nonnull align 1 dereferenceable(5) @.str.96, i64 5, i1 false)
  store i32 %25, ptr %0, align 4
  br label %_ZN8aiString6AppendEPKc.exit

30:                                               ; preds = %10
  %31 = add i32 %13, 5
  %32 = icmp ugt i32 %31, 1023
  br i1 %32, label %_ZN8aiString6AppendEPKc.exit, label %33

33:                                               ; preds = %30
  %34 = zext i32 %13 to i64
  %35 = getelementptr inbounds nuw [1024 x i8], ptr %5, i64 0, i64 %34
  tail call void @llvm.memcpy.p0.p0.i64(ptr noundef nonnull align 1 dereferenceable(6) %35, ptr noundef nonnull align 1 dereferenceable(6) @.str.92, i64 6, i1 false)
  store i32 %31, ptr %0, align 4
  br label %_ZN8aiString6AppendEPKc.exit

36:                                               ; preds = %10
  %37 = add i32 %14, 6
  %38 = icmp ugt i32 %37, 1023
  br i1 %38, label %_ZN8aiString6AppendEPKc.exit, label %39

39:                                               ; preds = %36
  %40 = zext i32 %14 to i64
  %41 = getelementptr inbounds nuw [1024 x i8], ptr %5, i64 0, i64 %40
  tail call void @llvm.memcpy.p0.p0.i64(ptr noundef nonnull align 1 dereferenceable(7) %41, ptr noundef nonnull align 1 dereferenceable(7) @.str.93, i64 7, i1 false)
  store i32 %37, ptr %0, align 4
  br label %_ZN8aiString6AppendEPKc.exit

42:                                               ; preds = %10
  %43 = add i32 %15, 6
  %44 = icmp ugt i32 %43, 1023
  br i1 %44, label %_ZN8aiString6AppendEPKc.exit, label %45

45:                                               ; preds = %42
  %46 = zext i32 %15 to i64
  %47 = getelementptr inbounds nuw [1024 x i8], ptr %5, i64 0, i64 %46
  tail call void @llvm.memcpy.p0.p0.i64(ptr noundef nonnull align 1 dereferenceable(7) %47, ptr noundef nonnull align 1 dereferenceable(7) @.str.94, i64 7, i1 false)
  store i32 %43, ptr %0, align 4
  br label %_ZN8aiString6AppendEPKc.exit

48:                                               ; preds = %10
  %49 = add i32 %11, 1
  store i32 %49, ptr %0, align 4
  %50 = zext i32 %11 to i64
  %51 = getelementptr inbounds nuw [1024 x i8], ptr %5, i64 0, i64 %50
  store i8 %17, ptr %51, align 1
  br label %_ZN8aiString6AppendEPKc.exit

_ZN8aiString6AppendEPKc.exit:                     ; preds = %45, %42, %39, %36, %33, %30, %27, %24, %21, %18, %48
  %52 = phi i32 [ %43, %45 ], [ %11, %42 ], [ %37, %39 ], [ %11, %36 ], [ %31, %33 ], [ %11, %30 ], [ %25, %27 ], [ %11, %24 ], [ %19, %21 ], [ %11, %18 ], [ %49, %48 ]
  %53 = phi i32 [ %43, %45 ], [ %12, %42 ], [ %37, %39 ], [ %12, %36 ], [ %31, %33 ], [ %12, %30 ], [ %25, %27 ], [ %12, %24 ], [ %19, %21 ], [ %11, %18 ], [ %49, %48 ]
  %54 = phi i32 [ %43, %45 ], [ %13, %42 ], [ %37, %39 ], [ %13, %36 ], [ %31, %33 ], [ %13, %30 ], [ %25, %27 ], [ %12, %24 ], [ %19, %21 ], [ %11, %18 ], [ %49, %48 ]
  %55 = phi i32 [ %43, %45 ], [ %14, %42 ], [ %37, %39 ], [ %14, %36 ], [ %31, %33 ], [ %13, %30 ], [ %25, %27 ], [ %12, %24 ], [ %19, %21 ], [ %11, %18 ], [ %49, %48 ]
  %56 = phi i32 [ %43, %45 ], [ %15, %42 ], [ %37, %39 ], [ %14, %36 ], [ %31, %33 ], [ %13, %30 ], [ %25, %27 ], [ %12, %24 ], [ %19, %21 ], [ %11, %18 ], [ %49, %48 ]
  %indvars.iv.next = add nuw nsw i64 %indvars.iv, 1
  %57 = load i32, ptr %1, align 4
  %58 = zext i32 %57 to i64
  %59 = icmp samesign ult i64 %indvars.iv.next, %58
  br i1 %59, label %10, label %._crit_edge.loopexit, !llvm.loop !19
}